; Function Attrs: cold mustprogress nofree norecurse nosync nounwind optsize willreturn memory(argmem: readwrite) uwtable
define internal range(i32 -22, 1) i32 @mace_decode_init(ptr noundef captures(none) %0) #0 {
  %2 = getelementptr inbounds nuw i8, ptr %0, i64 356
  %3 = load i32, ptr %2, align 4, !tbaa !4
  %4 = add i32 %3, -3
  %or.cond = icmp ult i32 %4, -2
  br i1 %or.cond, label %7, label %5

5:                                                ; preds = %1
  %6 = getelementptr inbounds nuw i8, ptr %0, i64 348
  store i32 6, ptr %6, align 4, !tbaa !27
  br label %7

7:                                                ; preds = %1, %5
  %.0 = phi i32 [ 0, %5 ], [ -22, %1 ]
  ret i32 %.0
}